target datalayout = "e-m:e-p270:32:32-p271:32:32-p272:64:64-i64:64-i128:128-f80:128-n8:16:32:64-S128"
target triple = "x86_64-pc-linux-gnu"

%"class.cv::tinyxml2::XMLPrinter" = type { %"class.cv::tinyxml2::XMLVisitor", i8, %"class.cv::tinyxml2::DynArray.6", i8, ptr, i32, i32, i8, i8, [64 x i8], [64 x i8], [6 x i8], %"class.cv::tinyxml2::DynArray.7" }
%"class.cv::tinyxml2::XMLVisitor" = type { ptr }
%"class.cv::tinyxml2::DynArray.6" = type { ptr, [10 x ptr], i32, i32 }
%"class.cv::tinyxml2::DynArray.7" = type <{ ptr, [20 x i8], i32, i32, [4 x i8] }>

@.str.11 = private unnamed_addr constant [10 x i8] c"<![CDATA[\00", align 1
@.str.13 = private unnamed_addr constant [4 x i8] c"]]>\00", align 1
@.str.16 = private unnamed_addr constant [2 x i8] c">\00", align 1
@.str.20 = private unnamed_addr constant [3 x i8] c"%s\00", align 1

; Function Attrs: mustprogress uwtable
define hidden void @_ZN2cv8tinyxml210XMLPrinter11SealElementEv(ptr noundef nonnull align 8 dereferenceable(312) %0) #3 align 2 {
  %2 = alloca ptr, align 8
  store ptr %0, ptr %2, align 8, !tbaa !185
  %3 = load ptr, ptr %2, align 8
  %4 = getelementptr inbounds nuw %"class.cv::tinyxml2::XMLPrinter", ptr %3, i32 0, i32 1
  store i8 0, ptr %4, align 8, !tbaa !187
  call void (ptr, ptr, ...) @_ZN2cv8tinyxml210XMLPrinter5PrintEPKcz(ptr noundef nonnull align 8 dereferenceable(312) %3, ptr noundef @.str.16)
  ret void
}

; Function Attrs: mustprogress uwtable
define hidden void @_ZN2cv8tinyxml210XMLPrinter8PushTextEPKcb(ptr noundef nonnull align 8 dereferenceable(312) %0, ptr noundef %1, i1 noundef zeroext %2) #3 align 2 {
  %4 = alloca ptr, align 8
  %5 = alloca ptr, align 8
  %6 = alloca i8, align 1
  store ptr %0, ptr %4, align 8, !tbaa !185
  store ptr %1, ptr %5, align 8, !tbaa !14
  %7 = zext i1 %2 to i8
  store i8 %7, ptr %6, align 1, !tbaa !37
  %8 = load ptr, ptr %4, align 8
  %9 = getelementptr inbounds nuw %"class.cv::tinyxml2::XMLPrinter", ptr %8, i32 0, i32 5
  %10 = load i32, ptr %9, align 8, !tbaa !195
  %11 = sub nsw i32 %10, 1
  %12 = getelementptr inbounds nuw %"class.cv::tinyxml2::XMLPrinter", ptr %8, i32 0, i32 6
  store i32 %11, ptr %12, align 4, !tbaa !196
  %13 = getelementptr inbounds nuw %"class.cv::tinyxml2::XMLPrinter", ptr %8, i32 0, i32 1
  %14 = load i8, ptr %13, align 8, !tbaa !187, !range !39, !noundef !40
  %15 = trunc i8 %14 to i1
  br i1 %15, label %16, label %17

16:                                               ; preds = %3
  call void @_ZN2cv8tinyxml210XMLPrinter11SealElementEv(ptr noundef nonnull align 8 dereferenceable(312) %8)
  br label %17

17:                                               ; preds = %16, %3
  %18 = load i8, ptr %6, align 1, !tbaa !37, !range !39, !noundef !40
  %19 = trunc i8 %18 to i1
  br i1 %19, label %20, label %22

20:                                               ; preds = %17
  call void (ptr, ptr, ...) @_ZN2cv8tinyxml210XMLPrinter5PrintEPKcz(ptr noundef nonnull align 8 dereferenceable(312) %8, ptr noundef @.str.11)
  %21 = load ptr, ptr %5, align 8, !tbaa !14
  call void (ptr, ptr, ...) @_ZN2cv8tinyxml210XMLPrinter5PrintEPKcz(ptr noundef nonnull align 8 dereferenceable(312) %8, ptr noundef @.str.20, ptr noundef %21)
  call void (ptr, ptr, ...) @_ZN2cv8tinyxml210XMLPrinter5PrintEPKcz(ptr noundef nonnull align 8 dereferenceable(312) %8, ptr noundef @.str.13)
  br label %24

22:                                               ; preds = %17
  %23 = load ptr, ptr %5, align 8, !tbaa !14
  call void @_ZN2cv8tinyxml210XMLPrinter11PrintStringEPKcb(ptr noundef nonnull align 8 dereferenceable(312) %8, ptr noundef %23, i1 noundef zeroext true)
  br label %24

24:                                               ; preds = %22, %20
  ret void
}